#include <math.h>
#include <stdio.h>
#include <stdlib.h>
#include <string.h>

int main(){
    int row,col,i,j,g,k,p,num,time=0;
    int sz[110][110];
    scanf("%d%d",&row,&col);
    num=row*col;
    for(i=0;i<row;i++){
        for(j=0;j<col;j++){
            scanf("%d",&sz[i][j]);        }}  
    for(i=0;;i++){
        for(j=i;j<col-i;j++){
            printf("%d\n",sz[i][j]);time++;}
          if(time==num){break;}
        for(g=1+i;g<row-i;g++){
            printf("%d\n",sz[g][col-1-i]);time++;}
          if(time==num){break;}    
        for(k=col-2-i;k>=i;k--){
            printf("%d\n",sz[row-1-i][k]);time++;}
          if(time==num){break;}
        for(p=row-2-i;p>i;p--){
            printf("%d\n",sz[p][i]);time++;}
          if(time==num){break;}
    }
}

