; ModuleID = '46/3446.c'
source_filename = "46/3446.c"
target datalayout = "e-m:e-p270:32:32-p271:32:32-p272:64:64-i64:64-f80:128-n8:16:32:64-S128"
target triple = "x86_64-pc-linux-gnu"

@.str = private unnamed_addr constant [5 x i8] c"%d%d\00", align 1
@.str.1 = private unnamed_addr constant [3 x i8] c"%d\00", align 1
@.str.2 = private unnamed_addr constant [4 x i8] c"%d\0A\00", align 1

; Function Attrs: noinline nounwind uwtable
define dso_local i32 @main() #0 {
  %1 = alloca i32, align 4
  %2 = alloca i32, align 4
  %3 = alloca i32, align 4
  %4 = alloca i32, align 4
  %5 = alloca i32, align 4
  %6 = alloca i32, align 4
  %7 = alloca i32, align 4
  %8 = alloca i32, align 4
  %9 = alloca i32, align 4
  %10 = alloca i32, align 4
  %11 = alloca [110 x [110 x i32]], align 16
  store i32 0, i32* %1, align 4
  store i32 0, i32* %10, align 4
  %12 = call i32 (i8*, ...) @__isoc99_scanf(i8* getelementptr inbounds ([5 x i8], [5 x i8]* @.str, i64 0, i64 0), i32* %2, i32* %3)
  %13 = load i32, i32* %2, align 4
  %14 = load i32, i32* %3, align 4
  %15 = mul nsw i32 %13, %14
  store i32 %15, i32* %9, align 4
  store i32 0, i32* %4, align 4
  br label %16

16:                                               ; preds = %37, %0
  %17 = load i32, i32* %4, align 4
  %18 = load i32, i32* %2, align 4
  %19 = icmp slt i32 %17, %18
  br i1 %19, label %20, label %40

20:                                               ; preds = %16
  store i32 0, i32* %5, align 4
  br label %21

21:                                               ; preds = %33, %20
  %22 = load i32, i32* %5, align 4
  %23 = load i32, i32* %3, align 4
  %24 = icmp slt i32 %22, %23
  br i1 %24, label %25, label %36

25:                                               ; preds = %21
  %26 = load i32, i32* %4, align 4
  %27 = sext i32 %26 to i64
  %28 = getelementptr inbounds [110 x [110 x i32]], [110 x [110 x i32]]* %11, i64 0, i64 %27
  %29 = load i32, i32* %5, align 4
  %30 = sext i32 %29 to i64
  %31 = getelementptr inbounds [110 x i32], [110 x i32]* %28, i64 0, i64 %30
  %32 = call i32 (i8*, ...) @__isoc99_scanf(i8* getelementptr inbounds ([3 x i8], [3 x i8]* @.str.1, i64 0, i64 0), i32* %31)
  br label %33

33:                                               ; preds = %25
  %34 = load i32, i32* %5, align 4
  %35 = add nsw i32 %34, 1
  store i32 %35, i32* %5, align 4
  br label %21

36:                                               ; preds = %21
  br label %37

37:                                               ; preds = %36
  %38 = load i32, i32* %4, align 4
  %39 = add nsw i32 %38, 1
  store i32 %39, i32* %4, align 4
  br label %16

40:                                               ; preds = %16
  store i32 0, i32* %4, align 4
  br label %41

41:                                               ; preds = %159, %40
  %42 = load i32, i32* %4, align 4
  store i32 %42, i32* %5, align 4
  br label %43

43:                                               ; preds = %60, %41
  %44 = load i32, i32* %5, align 4
  %45 = load i32, i32* %3, align 4
  %46 = load i32, i32* %4, align 4
  %47 = sub nsw i32 %45, %46
  %48 = icmp slt i32 %44, %47
  br i1 %48, label %49, label %63

49:                                               ; preds = %43
  %50 = load i32, i32* %4, align 4
  %51 = sext i32 %50 to i64
  %52 = getelementptr inbounds [110 x [110 x i32]], [110 x [110 x i32]]* %11, i64 0, i64 %51
  %53 = load i32, i32* %5, align 4
  %54 = sext i32 %53 to i64
  %55 = getelementptr inbounds [110 x i32], [110 x i32]* %52, i64 0, i64 %54
  %56 = load i32, i32* %55, align 4
  %57 = call i32 (i8*, ...) @printf(i8* getelementptr inbounds ([4 x i8], [4 x i8]* @.str.2, i64 0, i64 0), i32 %56)
  %58 = load i32, i32* %10, align 4
  %59 = add nsw i32 %58, 1
  store i32 %59, i32* %10, align 4
  br label %60

60:                                               ; preds = %49
  %61 = load i32, i32* %5, align 4
  %62 = add nsw i32 %61, 1
  store i32 %62, i32* %5, align 4
  br label %43

63:                                               ; preds = %43
  %64 = load i32, i32* %10, align 4
  %65 = load i32, i32* %9, align 4
  %66 = icmp eq i32 %64, %65
  br i1 %66, label %67, label %68

67:                                               ; preds = %63
  br label %162

68:                                               ; preds = %63
  %69 = load i32, i32* %4, align 4
  %70 = add nsw i32 1, %69
  store i32 %70, i32* %6, align 4
  br label %71

71:                                               ; preds = %91, %68
  %72 = load i32, i32* %6, align 4
  %73 = load i32, i32* %2, align 4
  %74 = load i32, i32* %4, align 4
  %75 = sub nsw i32 %73, %74
  %76 = icmp slt i32 %72, %75
  br i1 %76, label %77, label %94

77:                                               ; preds = %71
  %78 = load i32, i32* %6, align 4
  %79 = sext i32 %78 to i64
  %80 = getelementptr inbounds [110 x [110 x i32]], [110 x [110 x i32]]* %11, i64 0, i64 %79
  %81 = load i32, i32* %3, align 4
  %82 = sub nsw i32 %81, 1
  %83 = load i32, i32* %4, align 4
  %84 = sub nsw i32 %82, %83
  %85 = sext i32 %84 to i64
  %86 = getelementptr inbounds [110 x i32], [110 x i32]* %80, i64 0, i64 %85
  %87 = load i32, i32* %86, align 4
  %88 = call i32 (i8*, ...) @printf(i8* getelementptr inbounds ([4 x i8], [4 x i8]* @.str.2, i64 0, i64 0), i32 %87)
  %89 = load i32, i32* %10, align 4
  %90 = add nsw i32 %89, 1
  store i32 %90, i32* %10, align 4
  br label %91

91:                                               ; preds = %77
  %92 = load i32, i32* %6, align 4
  %93 = add nsw i32 %92, 1
  store i32 %93, i32* %6, align 4
  br label %71

94:                                               ; preds = %71
  %95 = load i32, i32* %10, align 4
  %96 = load i32, i32* %9, align 4
  %97 = icmp eq i32 %95, %96
  br i1 %97, label %98, label %99

98:                                               ; preds = %94
  br label %162

99:                                               ; preds = %94
  %100 = load i32, i32* %3, align 4
  %101 = sub nsw i32 %100, 2
  %102 = load i32, i32* %4, align 4
  %103 = sub nsw i32 %101, %102
  store i32 %103, i32* %7, align 4
  br label %104

104:                                              ; preds = %122, %99
  %105 = load i32, i32* %7, align 4
  %106 = load i32, i32* %4, align 4
  %107 = icmp sge i32 %105, %106
  br i1 %107, label %108, label %125

108:                                              ; preds = %104
  %109 = load i32, i32* %2, align 4
  %110 = sub nsw i32 %109, 1
  %111 = load i32, i32* %4, align 4
  %112 = sub nsw i32 %110, %111
  %113 = sext i32 %112 to i64
  %114 = getelementptr inbounds [110 x [110 x i32]], [110 x [110 x i32]]* %11, i64 0, i64 %113
  %115 = load i32, i32* %7, align 4
  %116 = sext i32 %115 to i64
  %117 = getelementptr inbounds [110 x i32], [110 x i32]* %114, i64 0, i64 %116
  %118 = load i32, i32* %117, align 4
  %119 = call i32 (i8*, ...) @printf(i8* getelementptr inbounds ([4 x i8], [4 x i8]* @.str.2, i64 0, i64 0), i32 %118)
  %120 = load i32, i32* %10, align 4
  %121 = add nsw i32 %120, 1
  store i32 %121, i32* %10, align 4
  br label %122

122:                                              ; preds = %108
  %123 = load i32, i32* %7, align 4
  %124 = add nsw i32 %123, -1
  store i32 %124, i32* %7, align 4
  br label %104

125:                                              ; preds = %104
  %126 = load i32, i32* %10, align 4
  %127 = load i32, i32* %9, align 4
  %128 = icmp eq i32 %126, %127
  br i1 %128, label %129, label %130

129:                                              ; preds = %125
  br label %162

130:                                              ; preds = %125
  %131 = load i32, i32* %2, align 4
  %132 = sub nsw i32 %131, 2
  %133 = load i32, i32* %4, align 4
  %134 = sub nsw i32 %132, %133
  store i32 %134, i32* %8, align 4
  br label %135

135:                                              ; preds = %150, %130
  %136 = load i32, i32* %8, align 4
  %137 = load i32, i32* %4, align 4
  %138 = icmp sgt i32 %136, %137
  br i1 %138, label %139, label %153

139:                                              ; preds = %135
  %140 = load i32, i32* %8, align 4
  %141 = sext i32 %140 to i64
  %142 = getelementptr inbounds [110 x [110 x i32]], [110 x [110 x i32]]* %11, i64 0, i64 %141
  %143 = load i32, i32* %4, align 4
  %144 = sext i32 %143 to i64
  %145 = getelementptr inbounds [110 x i32], [110 x i32]* %142, i64 0, i64 %144
  %146 = load i32, i32* %145, align 4
  %147 = call i32 (i8*, ...) @printf(i8* getelementptr inbounds ([4 x i8], [4 x i8]* @.str.2, i64 0, i64 0), i32 %146)
  %148 = load i32, i32* %10, align 4
  %149 = add nsw i32 %148, 1
  store i32 %149, i32* %10, align 4
  br label %150

150:                                              ; preds = %139
  %151 = load i32, i32* %8, align 4
  %152 = add nsw i32 %151, -1
  store i32 %152, i32* %8, align 4
  br label %135

153:                                              ; preds = %135
  %154 = load i32, i32* %10, align 4
  %155 = load i32, i32* %9, align 4
  %156 = icmp eq i32 %154, %155
  br i1 %156, label %157, label %158

157:                                              ; preds = %153
  br label %162

158:                                              ; preds = %153
  br label %159

159:                                              ; preds = %158
  %160 = load i32, i32* %4, align 4
  %161 = add nsw i32 %160, 1
  store i32 %161, i32* %4, align 4
  br label %41

162:                                              ; preds = %157, %129, %98, %67
  %163 = load i32, i32* %1, align 4
  ret i32 %163
}

declare dso_local i32 @__isoc99_scanf(i8*, ...) #1

declare dso_local i32 @printf(i8*, ...) #1


!llvm.module.flags = !{!0}
!llvm.ident = !{!1}

!0 = !{i32 1, !"wchar_size", i32 4}
!1 = !{!"clang version 10.0.0-4ubuntu1 "}
